; Function Attrs: mustprogress uwtable
define noundef nonnull align 8 dereferenceable(40) ptr @_ZNK32pxrInternal_v0_24__pxrReserved__12Usd_PrimData12GetPrimIndexEv(ptr noundef nonnull align 8 dereferenceable(64) %0) local_unnamed_addr #0 align 2 personality ptr @__gxx_personality_v0 {
  %2 = load atomic i8, ptr @_ZGVZNK32pxrInternal_v0_24__pxrReserved__12Usd_PrimData12GetPrimIndexEvE14dummyPrimIndex acquire, align 8
  %3 = icmp eq i8 %2, 0
  br i1 %3, label %4, label %9, !prof !4

4:                                                ; preds = %1
  %5 = tail call i32 @__cxa_guard_acquire(ptr nonnull @_ZGVZNK32pxrInternal_v0_24__pxrReserved__12Usd_PrimData12GetPrimIndexEvE14dummyPrimIndex) #14
  %.not = icmp eq i32 %5, 0
  br i1 %.not, label %9, label %6

6:                                                ; preds = %4
  invoke void @_ZN32pxrInternal_v0_24__pxrReserved__12PcpPrimIndexC1Ev(ptr noundef nonnull align 8 dereferenceable(40) @_ZZNK32pxrInternal_v0_24__pxrReserved__12Usd_PrimData12GetPrimIndexEvE14dummyPrimIndex)
          to label %7 unwind label %21

7:                                                ; preds = %6
  %8 = tail call i32 @__cxa_atexit(ptr nonnull @_ZN32pxrInternal_v0_24__pxrReserved__12PcpPrimIndexD2Ev, ptr nonnull @_ZZNK32pxrInternal_v0_24__pxrReserved__12Usd_PrimData12GetPrimIndexEvE14dummyPrimIndex, ptr nonnull @__dso_handle) #14
  tail call void @__cxa_guard_release(ptr nonnull @_ZGVZNK32pxrInternal_v0_24__pxrReserved__12Usd_PrimData12GetPrimIndexEvE14dummyPrimIndex) #14
  br label %9

9:                                                ; preds = %7, %4, %1
  %10 = getelementptr inbounds nuw i8, ptr %0, i64 56
  %11 = load i64, ptr %10, align 8
  %12 = and i64 %11, 4096
  %.not.i = icmp eq i64 %12, 0
  br i1 %.not.i, label %_ZNK32pxrInternal_v0_24__pxrReserved__12Usd_PrimData11IsPrototypeEv.exit.thread, label %_ZNK32pxrInternal_v0_24__pxrReserved__12Usd_PrimData11IsPrototypeEv.exit

_ZNK32pxrInternal_v0_24__pxrReserved__12Usd_PrimData11IsPrototypeEv.exit.thread: ; preds = %9
  %13 = getelementptr inbounds nuw i8, ptr %0, i64 8
  %14 = load ptr, ptr %13, align 8
  br label %19

_ZNK32pxrInternal_v0_24__pxrReserved__12Usd_PrimData11IsPrototypeEv.exit: ; preds = %9
  %15 = getelementptr inbounds nuw i8, ptr %0, i64 16
  %16 = tail call noundef zeroext i1 @_ZNK32pxrInternal_v0_24__pxrReserved__7SdfPath14IsRootPrimPathEv(ptr noundef nonnull align 4 dereferenceable(8) %15)
  %17 = getelementptr inbounds nuw i8, ptr %0, i64 8
  %18 = load ptr, ptr %17, align 8
  %spec.select = select i1 %16, ptr @_ZZNK32pxrInternal_v0_24__pxrReserved__12Usd_PrimData12GetPrimIndexEvE14dummyPrimIndex, ptr %18
  br label %19

19:                                               ; preds = %_ZNK32pxrInternal_v0_24__pxrReserved__12Usd_PrimData11IsPrototypeEv.exit, %_ZNK32pxrInternal_v0_24__pxrReserved__12Usd_PrimData11IsPrototypeEv.exit.thread
  %20 = phi ptr [ %14, %_ZNK32pxrInternal_v0_24__pxrReserved__12Usd_PrimData11IsPrototypeEv.exit.thread ], [ %spec.select, %_ZNK32pxrInternal_v0_24__pxrReserved__12Usd_PrimData11IsPrototypeEv.exit ]
  ret ptr %20

21:                                               ; preds = %6
  %22 = landingpad { ptr, i32 }
          cleanup
  tail call void @__cxa_guard_abort(ptr nonnull @_ZGVZNK32pxrInternal_v0_24__pxrReserved__12Usd_PrimData12GetPrimIndexEvE14dummyPrimIndex) #14
  resume { ptr, i32 } %22
}